target datalayout = "e-m:e-p270:32:32-p271:32:32-p272:64:64-i64:64-i128:128-f80:128-n8:16:32:64-S128"
target triple = "x86_64-pc-linux-gnu"

%"class.cv::Rect_" = type { i32, i32, i32, i32 }
%"class.cv::Rect_.46" = type { double, double, double, double }

; Function Attrs: mustprogress nounwind uwtable
define linkonce_odr hidden void @_ZN2cv5Rect_IdEC2Edddd(ptr noundef nonnull align 8 dereferenceable(32) %0, double noundef %1, double noundef %2, double noundef %3, double noundef %4) unnamed_addr #5 comdat align 2 {
  %6 = alloca ptr, align 8
  %7 = alloca double, align 8
  %8 = alloca double, align 8
  %9 = alloca double, align 8
  %10 = alloca double, align 8
  store ptr %0, ptr %6, align 8
  store double %1, ptr %7, align 8
  store double %2, ptr %8, align 8
  store double %3, ptr %9, align 8
  store double %4, ptr %10, align 8
  %11 = load ptr, ptr %6, align 8
  %12 = getelementptr inbounds %"class.cv::Rect_.46", ptr %11, i32 0, i32 0
  %13 = load double, ptr %7, align 8
  store double %13, ptr %12, align 8
  %14 = getelementptr inbounds %"class.cv::Rect_.46", ptr %11, i32 0, i32 1
  %15 = load double, ptr %8, align 8
  store double %15, ptr %14, align 8
  %16 = getelementptr inbounds %"class.cv::Rect_.46", ptr %11, i32 0, i32 2
  %17 = load double, ptr %9, align 8
  store double %17, ptr %16, align 8
  %18 = getelementptr inbounds %"class.cv::Rect_.46", ptr %11, i32 0, i32 3
  %19 = load double, ptr %10, align 8
  store double %19, ptr %18, align 8
  ret void
}

; Function Attrs: mustprogress nounwind uwtable
define internal noundef double @_ZN2cvL13saturate_castIdEET_i(i32 noundef %0) #5 {
  %2 = alloca i32, align 4
  store i32 %0, ptr %2, align 4
  %3 = load i32, ptr %2, align 4
  %4 = sitofp i32 %3 to double
  ret double %4
}

; Function Attrs: mustprogress nounwind uwtable
define linkonce_odr noundef nonnull align 8 dereferenceable(8) ptr @_ZSt3minIdERKT_S2_S2_(ptr noundef nonnull align 8 dereferenceable(8) %0, ptr noundef nonnull align 8 dereferenceable(8) %1) #5 comdat {
  %3 = alloca ptr, align 8
  %4 = alloca ptr, align 8
  %5 = alloca ptr, align 8
  store ptr %0, ptr %4, align 8
  store ptr %1, ptr %5, align 8
  %6 = load ptr, ptr %5, align 8
  %7 = load double, ptr %6, align 8
  %8 = load ptr, ptr %4, align 8
  %9 = load double, ptr %8, align 8
  %10 = fcmp olt double %7, %9
  br i1 %10, label %11, label %13

11:                                               ; preds = %2
  %12 = load ptr, ptr %5, align 8
  store ptr %12, ptr %3, align 8
  br label %15

13:                                               ; preds = %2
  %14 = load ptr, ptr %4, align 8
  store ptr %14, ptr %3, align 8
  br label %15

15:                                               ; preds = %13, %11
  %16 = load ptr, ptr %3, align 8
  ret ptr %16
}

; Function Attrs: mustprogress uwtable
define linkonce_odr hidden void @_ZNK2cv5Rect_IiEcvNS0_IT_EEIdEEv(ptr dead_on_unwind noalias writable sret(%"class.cv::Rect_.46") align 8 %0, ptr noundef nonnull align 4 dereferenceable(16) %1) #4 comdat align 2 {
  %3 = alloca ptr, align 8
  store ptr %1, ptr %3, align 8
  %4 = load ptr, ptr %3, align 8
  %5 = getelementptr inbounds %"class.cv::Rect_", ptr %4, i32 0, i32 0
  %6 = load i32, ptr %5, align 4
  %7 = call noundef double @_ZN2cvL13saturate_castIdEET_i(i32 noundef %6)
  %8 = getelementptr inbounds %"class.cv::Rect_", ptr %4, i32 0, i32 1
  %9 = load i32, ptr %8, align 4
  %10 = call noundef double @_ZN2cvL13saturate_castIdEET_i(i32 noundef %9)
  %11 = getelementptr inbounds %"class.cv::Rect_", ptr %4, i32 0, i32 2
  %12 = load i32, ptr %11, align 4
  %13 = call noundef double @_ZN2cvL13saturate_castIdEET_i(i32 noundef %12)
  %14 = getelementptr inbounds %"class.cv::Rect_", ptr %4, i32 0, i32 3
  %15 = load i32, ptr %14, align 4
  %16 = call noundef double @_ZN2cvL13saturate_castIdEET_i(i32 noundef %15)
  call void @_ZN2cv5Rect_IdEC2Edddd(ptr noundef nonnull align 8 dereferenceable(32) %0, double noundef %7, double noundef %10, double noundef %13, double noundef %16)
  ret void
}

; Function Attrs: mustprogress nounwind uwtable
define linkonce_odr hidden void @_ZN2cv5Rect_IiEC2Ev(ptr noundef nonnull align 4 dereferenceable(16) %0) unnamed_addr #5 comdat align 2 {
  %2 = alloca ptr, align 8
  store ptr %0, ptr %2, align 8
  %3 = load ptr, ptr %2, align 8
  %4 = getelementptr inbounds %"class.cv::Rect_", ptr %3, i32 0, i32 0
  store i32 0, ptr %4, align 4
  %5 = getelementptr inbounds %"class.cv::Rect_", ptr %3, i32 0, i32 1
  store i32 0, ptr %5, align 4
  %6 = getelementptr inbounds %"class.cv::Rect_", ptr %3, i32 0, i32 2
  store i32 0, ptr %6, align 4
  %7 = getelementptr inbounds %"class.cv::Rect_", ptr %3, i32 0, i32 3
  store i32 0, ptr %7, align 4
  ret void
}

; Function Attrs: mustprogress nounwind uwtable
define linkonce_odr hidden noundef zeroext i1 @_ZNK2cv5Rect_IdE5emptyEv(ptr noundef nonnull align 8 dereferenceable(32) %0) #5 comdat align 2 {
  %2 = alloca ptr, align 8
  store ptr %0, ptr %2, align 8
  %3 = load ptr, ptr %2, align 8
  %4 = getelementptr inbounds %"class.cv::Rect_.46", ptr %3, i32 0, i32 2
  %5 = load double, ptr %4, align 8
  %6 = fcmp ole double %5, 0.000000e+00
  br i1 %6, label %11, label %7

7:                                                ; preds = %1
  %8 = getelementptr inbounds %"class.cv::Rect_.46", ptr %3, i32 0, i32 3
  %9 = load double, ptr %8, align 8
  %10 = fcmp ole double %9, 0.000000e+00
  br label %11

11:                                               ; preds = %7, %1
  %12 = phi i1 [ true, %1 ], [ %10, %7 ]
  ret i1 %12
}

; Function Attrs: mustprogress uwtable
define internal noundef nonnull align 8 dereferenceable(32) ptr @_ZN2cvaNIdEERNS_5Rect_IT_EES4_RKS3_(ptr noundef nonnull align 8 dereferenceable(32) %0, ptr noundef nonnull align 8 dereferenceable(32) %1) #4 {
  %3 = alloca ptr, align 8
  %4 = alloca ptr, align 8
  %5 = alloca ptr, align 8
  %6 = alloca %"class.cv::Rect_.46", align 8
  %7 = alloca %"class.cv::Rect_", align 4
  %8 = alloca ptr, align 8
  %9 = alloca ptr, align 8
  %10 = alloca ptr, align 8
  %11 = alloca ptr, align 8
  %12 = alloca %"class.cv::Rect_.46", align 8
  %13 = alloca %"class.cv::Rect_", align 4
  %14 = alloca double, align 8
  %15 = alloca double, align 8
  %16 = alloca %"class.cv::Rect_.46", align 8
  %17 = alloca %"class.cv::Rect_", align 4
  store ptr %0, ptr %4, align 8
  store ptr %1, ptr %5, align 8
  %18 = load ptr, ptr %4, align 8
  %19 = call noundef zeroext i1 @_ZNK2cv5Rect_IdE5emptyEv(ptr noundef nonnull align 8 dereferenceable(32) %18)
  br i1 %19, label %23, label %20

20:                                               ; preds = %2
  %21 = load ptr, ptr %5, align 8
  %22 = call noundef zeroext i1 @_ZNK2cv5Rect_IdE5emptyEv(ptr noundef nonnull align 8 dereferenceable(32) %21)
  br i1 %22, label %23, label %26

23:                                               ; preds = %20, %2
  call void @_ZN2cv5Rect_IiEC2Ev(ptr noundef nonnull align 4 dereferenceable(16) %7)
  call void @_ZNK2cv5Rect_IiEcvNS0_IT_EEIdEEv(ptr dead_on_unwind writable sret(%"class.cv::Rect_.46") align 8 %6, ptr noundef nonnull align 4 dereferenceable(16) %7)
  %24 = load ptr, ptr %4, align 8
  call void @llvm.memcpy.p0.p0.i64(ptr align 8 %24, ptr align 8 %6, i64 32, i1 false)
  %25 = load ptr, ptr %4, align 8
  store ptr %25, ptr %3, align 8
  br label %166

26:                                               ; preds = %20
  %27 = load ptr, ptr %4, align 8
  %28 = getelementptr inbounds %"class.cv::Rect_.46", ptr %27, i32 0, i32 0
  %29 = load double, ptr %28, align 8
  %30 = load ptr, ptr %5, align 8
  %31 = getelementptr inbounds %"class.cv::Rect_.46", ptr %30, i32 0, i32 0
  %32 = load double, ptr %31, align 8
  %33 = fcmp olt double %29, %32
  br i1 %33, label %34, label %36

34:                                               ; preds = %26
  %35 = load ptr, ptr %4, align 8
  br label %38

36:                                               ; preds = %26
  %37 = load ptr, ptr %5, align 8
  br label %38

38:                                               ; preds = %36, %34
  %39 = phi ptr [ %35, %34 ], [ %37, %36 ]
  store ptr %39, ptr %8, align 8
  %40 = load ptr, ptr %4, align 8
  %41 = getelementptr inbounds %"class.cv::Rect_.46", ptr %40, i32 0, i32 0
  %42 = load double, ptr %41, align 8
  %43 = load ptr, ptr %5, align 8
  %44 = getelementptr inbounds %"class.cv::Rect_.46", ptr %43, i32 0, i32 0
  %45 = load double, ptr %44, align 8
  %46 = fcmp olt double %42, %45
  br i1 %46, label %47, label %49

47:                                               ; preds = %38
  %48 = load ptr, ptr %5, align 8
  br label %51

49:                                               ; preds = %38
  %50 = load ptr, ptr %4, align 8
  br label %51

51:                                               ; preds = %49, %47
  %52 = phi ptr [ %48, %47 ], [ %50, %49 ]
  store ptr %52, ptr %9, align 8
  %53 = load ptr, ptr %4, align 8
  %54 = getelementptr inbounds %"class.cv::Rect_.46", ptr %53, i32 0, i32 1
  %55 = load double, ptr %54, align 8
  %56 = load ptr, ptr %5, align 8
  %57 = getelementptr inbounds %"class.cv::Rect_.46", ptr %56, i32 0, i32 1
  %58 = load double, ptr %57, align 8
  %59 = fcmp olt double %55, %58
  br i1 %59, label %60, label %62

60:                                               ; preds = %51
  %61 = load ptr, ptr %4, align 8
  br label %64

62:                                               ; preds = %51
  %63 = load ptr, ptr %5, align 8
  br label %64

64:                                               ; preds = %62, %60
  %65 = phi ptr [ %61, %60 ], [ %63, %62 ]
  store ptr %65, ptr %10, align 8
  %66 = load ptr, ptr %4, align 8
  %67 = getelementptr inbounds %"class.cv::Rect_.46", ptr %66, i32 0, i32 1
  %68 = load double, ptr %67, align 8
  %69 = load ptr, ptr %5, align 8
  %70 = getelementptr inbounds %"class.cv::Rect_.46", ptr %69, i32 0, i32 1
  %71 = load double, ptr %70, align 8
  %72 = fcmp olt double %68, %71
  br i1 %72, label %73, label %75

73:                                               ; preds = %64
  %74 = load ptr, ptr %5, align 8
  br label %77

75:                                               ; preds = %64
  %76 = load ptr, ptr %4, align 8
  br label %77

77:                                               ; preds = %75, %73
  %78 = phi ptr [ %74, %73 ], [ %76, %75 ]
  store ptr %78, ptr %11, align 8
  %79 = load ptr, ptr %8, align 8
  %80 = getelementptr inbounds %"class.cv::Rect_.46", ptr %79, i32 0, i32 0
  %81 = load double, ptr %80, align 8
  %82 = fcmp olt double %81, 0.000000e+00
  br i1 %82, label %83, label %95

83:                                               ; preds = %77
  %84 = load ptr, ptr %8, align 8
  %85 = getelementptr inbounds %"class.cv::Rect_.46", ptr %84, i32 0, i32 0
  %86 = load double, ptr %85, align 8
  %87 = load ptr, ptr %8, align 8
  %88 = getelementptr inbounds %"class.cv::Rect_.46", ptr %87, i32 0, i32 2
  %89 = load double, ptr %88, align 8
  %90 = fadd double %86, %89
  %91 = load ptr, ptr %9, align 8
  %92 = getelementptr inbounds %"class.cv::Rect_.46", ptr %91, i32 0, i32 0
  %93 = load double, ptr %92, align 8
  %94 = fcmp olt double %90, %93
  br i1 %94, label %112, label %95

95:                                               ; preds = %83, %77
  %96 = load ptr, ptr %10, align 8
  %97 = getelementptr inbounds %"class.cv::Rect_.46", ptr %96, i32 0, i32 1
  %98 = load double, ptr %97, align 8
  %99 = fcmp olt double %98, 0.000000e+00
  br i1 %99, label %100, label %115

100:                                              ; preds = %95
  %101 = load ptr, ptr %10, align 8
  %102 = getelementptr inbounds %"class.cv::Rect_.46", ptr %101, i32 0, i32 1
  %103 = load double, ptr %102, align 8
  %104 = load ptr, ptr %10, align 8
  %105 = getelementptr inbounds %"class.cv::Rect_.46", ptr %104, i32 0, i32 3
  %106 = load double, ptr %105, align 8
  %107 = fadd double %103, %106
  %108 = load ptr, ptr %11, align 8
  %109 = getelementptr inbounds %"class.cv::Rect_.46", ptr %108, i32 0, i32 1
  %110 = load double, ptr %109, align 8
  %111 = fcmp olt double %107, %110
  br i1 %111, label %112, label %115

112:                                              ; preds = %100, %83
  call void @_ZN2cv5Rect_IiEC2Ev(ptr noundef nonnull align 4 dereferenceable(16) %13)
  call void @_ZNK2cv5Rect_IiEcvNS0_IT_EEIdEEv(ptr dead_on_unwind writable sret(%"class.cv::Rect_.46") align 8 %12, ptr noundef nonnull align 4 dereferenceable(16) %13)
  %113 = load ptr, ptr %4, align 8
  call void @llvm.memcpy.p0.p0.i64(ptr align 8 %113, ptr align 8 %12, i64 32, i1 false)
  %114 = load ptr, ptr %4, align 8
  store ptr %114, ptr %3, align 8
  br label %166

115:                                              ; preds = %100, %95
  %116 = load ptr, ptr %8, align 8
  %117 = getelementptr inbounds %"class.cv::Rect_.46", ptr %116, i32 0, i32 2
  %118 = load double, ptr %117, align 8
  %119 = load ptr, ptr %9, align 8
  %120 = getelementptr inbounds %"class.cv::Rect_.46", ptr %119, i32 0, i32 0
  %121 = load double, ptr %120, align 8
  %122 = load ptr, ptr %8, align 8
  %123 = getelementptr inbounds %"class.cv::Rect_.46", ptr %122, i32 0, i32 0
  %124 = load double, ptr %123, align 8
  %125 = fsub double %121, %124
  %126 = fsub double %118, %125
  store double %126, ptr %14, align 8
  %127 = load ptr, ptr %9, align 8
  %128 = getelementptr inbounds %"class.cv::Rect_.46", ptr %127, i32 0, i32 2
  %129 = call noundef nonnull align 8 dereferenceable(8) ptr @_ZSt3minIdERKT_S2_S2_(ptr noundef nonnull align 8 dereferenceable(8) %14, ptr noundef nonnull align 8 dereferenceable(8) %128)
  %130 = load double, ptr %129, align 8
  %131 = load ptr, ptr %4, align 8
  %132 = getelementptr inbounds %"class.cv::Rect_.46", ptr %131, i32 0, i32 2
  store double %130, ptr %132, align 8
  %133 = load ptr, ptr %10, align 8
  %134 = getelementptr inbounds %"class.cv::Rect_.46", ptr %133, i32 0, i32 3
  %135 = load double, ptr %134, align 8
  %136 = load ptr, ptr %11, align 8
  %137 = getelementptr inbounds %"class.cv::Rect_.46", ptr %136, i32 0, i32 1
  %138 = load double, ptr %137, align 8
  %139 = load ptr, ptr %10, align 8
  %140 = getelementptr inbounds %"class.cv::Rect_.46", ptr %139, i32 0, i32 1
  %141 = load double, ptr %140, align 8
  %142 = fsub double %138, %141
  %143 = fsub double %135, %142
  store double %143, ptr %15, align 8
  %144 = load ptr, ptr %11, align 8
  %145 = getelementptr inbounds %"class.cv::Rect_.46", ptr %144, i32 0, i32 3
  %146 = call noundef nonnull align 8 dereferenceable(8) ptr @_ZSt3minIdERKT_S2_S2_(ptr noundef nonnull align 8 dereferenceable(8) %15, ptr noundef nonnull align 8 dereferenceable(8) %145)
  %147 = load double, ptr %146, align 8
  %148 = load ptr, ptr %4, align 8
  %149 = getelementptr inbounds %"class.cv::Rect_.46", ptr %148, i32 0, i32 3
  store double %147, ptr %149, align 8
  %150 = load ptr, ptr %9, align 8
  %151 = getelementptr inbounds %"class.cv::Rect_.46", ptr %150, i32 0, i32 0
  %152 = load double, ptr %151, align 8
  %153 = load ptr, ptr %4, align 8
  %154 = getelementptr inbounds %"class.cv::Rect_.46", ptr %153, i32 0, i32 0
  store double %152, ptr %154, align 8
  %155 = load ptr, ptr %11, align 8
  %156 = getelementptr inbounds %"class.cv::Rect_.46", ptr %155, i32 0, i32 1
  %157 = load double, ptr %156, align 8
  %158 = load ptr, ptr %4, align 8
  %159 = getelementptr inbounds %"class.cv::Rect_.46", ptr %158, i32 0, i32 1
  store double %157, ptr %159, align 8
  %160 = load ptr, ptr %4, align 8
  %161 = call noundef zeroext i1 @_ZNK2cv5Rect_IdE5emptyEv(ptr noundef nonnull align 8 dereferenceable(32) %160)
  br i1 %161, label %162, label %164

162:                                              ; preds = %115
  call void @_ZN2cv5Rect_IiEC2Ev(ptr noundef nonnull align 4 dereferenceable(16) %17)
  call void @_ZNK2cv5Rect_IiEcvNS0_IT_EEIdEEv(ptr dead_on_unwind writable sret(%"class.cv::Rect_.46") align 8 %16, ptr noundef nonnull align 4 dereferenceable(16) %17)
  %163 = load ptr, ptr %4, align 8
  call void @llvm.memcpy.p0.p0.i64(ptr align 8 %163, ptr align 8 %16, i64 32, i1 false)
  br label %164

164:                                              ; preds = %162, %115
  %165 = load ptr, ptr %4, align 8
  store ptr %165, ptr %3, align 8
  br label %166

166:                                              ; preds = %164, %112, %23
  %167 = load ptr, ptr %3, align 8
  ret ptr %167
}

; Function Attrs: mustprogress uwtable
define internal void @_ZN2cvanIdEENS_5Rect_IT_EERKS3_S5_(ptr dead_on_unwind noalias writable sret(%"class.cv::Rect_.46") align 8 %0, ptr noundef nonnull align 8 dereferenceable(32) %1, ptr noundef nonnull align 8 dereferenceable(32) %2) #4 {
  %4 = alloca ptr, align 8
  %5 = alloca ptr, align 8
  %6 = alloca %"class.cv::Rect_.46", align 8
  store ptr %1, ptr %4, align 8
  store ptr %2, ptr %5, align 8
  %7 = load ptr, ptr %4, align 8
  call void @llvm.memcpy.p0.p0.i64(ptr align 8 %6, ptr align 8 %7, i64 32, i1 false)
  %8 = load ptr, ptr %5, align 8
  %9 = call noundef nonnull align 8 dereferenceable(32) ptr @_ZN2cvaNIdEERNS_5Rect_IT_EES4_RKS3_(ptr noundef nonnull align 8 dereferenceable(32) %6, ptr noundef nonnull align 8 dereferenceable(32) %8)
  call void @llvm.memcpy.p0.p0.i64(ptr align 8 %0, ptr align 8 %9, i64 32, i1 false)
  ret void
}

; Function Attrs: mustprogress nounwind uwtable
define linkonce_odr hidden noundef double @_ZNSt14numeric_limitsIdE7epsilonEv() #5 comdat align 2 {
  ret double 0x3CB0000000000000
}

; Function Attrs: mustprogress nounwind uwtable
define linkonce_odr hidden noundef double @_ZNK2cv5Rect_IdE4areaEv(ptr noundef nonnull align 8 dereferenceable(32) %0) #5 comdat align 2 {
  %2 = alloca ptr, align 8
  %3 = alloca double, align 8
  store ptr %0, ptr %2, align 8
  %4 = load ptr, ptr %2, align 8
  %5 = getelementptr inbounds %"class.cv::Rect_.46", ptr %4, i32 0, i32 2
  %6 = load double, ptr %5, align 8
  %7 = getelementptr inbounds %"class.cv::Rect_.46", ptr %4, i32 0, i32 3
  %8 = load double, ptr %7, align 8
  %9 = fmul double %6, %8
  store double %9, ptr %3, align 8
  %10 = load double, ptr %3, align 8
  ret double %10
}

; Function Attrs: mustprogress uwtable
define internal noundef double @_ZN2cvL15jaccardDistanceIdEEdRKNS_5Rect_IT_EES5_(ptr noundef nonnull align 8 dereferenceable(32) %0, ptr noundef nonnull align 8 dereferenceable(32) %1) #4 {
  %3 = alloca double, align 8
  %4 = alloca ptr, align 8
  %5 = alloca ptr, align 8
  %6 = alloca double, align 8
  %7 = alloca double, align 8
  %8 = alloca double, align 8
  %9 = alloca %"class.cv::Rect_.46", align 8
  store ptr %0, ptr %4, align 8
  store ptr %1, ptr %5, align 8
  %10 = load ptr, ptr %4, align 8
  %11 = call noundef double @_ZNK2cv5Rect_IdE4areaEv(ptr noundef nonnull align 8 dereferenceable(32) %10)
  store double %11, ptr %6, align 8
  %12 = load ptr, ptr %5, align 8
  %13 = call noundef double @_ZNK2cv5Rect_IdE4areaEv(ptr noundef nonnull align 8 dereferenceable(32) %12)
  store double %13, ptr %7, align 8
  %14 = load double, ptr %6, align 8
  %15 = load double, ptr %7, align 8
  %16 = fadd double %14, %15
  %17 = call noundef double @_ZNSt14numeric_limitsIdE7epsilonEv() #3
  %18 = fcmp ole double %16, %17
  br i1 %18, label %19, label %20

19:                                               ; preds = %2
  store double 0.000000e+00, ptr %3, align 8
  br label %32

20:                                               ; preds = %2
  %21 = load ptr, ptr %4, align 8
  %22 = load ptr, ptr %5, align 8
  call void @_ZN2cvanIdEENS_5Rect_IT_EERKS3_S5_(ptr dead_on_unwind writable sret(%"class.cv::Rect_.46") align 8 %9, ptr noundef nonnull align 8 dereferenceable(32) %21, ptr noundef nonnull align 8 dereferenceable(32) %22)
  %23 = call noundef double @_ZNK2cv5Rect_IdE4areaEv(ptr noundef nonnull align 8 dereferenceable(32) %9)
  store double %23, ptr %8, align 8
  %24 = load double, ptr %8, align 8
  %25 = load double, ptr %6, align 8
  %26 = load double, ptr %7, align 8
  %27 = fadd double %25, %26
  %28 = load double, ptr %8, align 8
  %29 = fsub double %27, %28
  %30 = fdiv double %24, %29
  %31 = fsub double 1.000000e+00, %30
  store double %31, ptr %3, align 8
  br label %32

32:                                               ; preds = %20, %19
  %33 = load double, ptr %3, align 8
  ret double %33
}

; Function Attrs: mustprogress uwtable
define internal noundef float @_ZN2cv3dnn14dnn4_v20240521L11rectOverlapINS_5Rect_IdEEEEfRKT_S7_(ptr noundef nonnull align 8 dereferenceable(32) %0, ptr noundef nonnull align 8 dereferenceable(32) %1) #4 {
  %3 = alloca ptr, align 8
  %4 = alloca ptr, align 8
  store ptr %0, ptr %3, align 8
  store ptr %1, ptr %4, align 8
  %5 = load ptr, ptr %3, align 8
  %6 = load ptr, ptr %4, align 8
  %7 = call noundef double @_ZN2cvL15jaccardDistanceIdEEdRKNS_5Rect_IT_EES5_(ptr noundef nonnull align 8 dereferenceable(32) %5, ptr noundef nonnull align 8 dereferenceable(32) %6)
  %8 = fptrunc double %7 to float
  %9 = fsub float 1.000000e+00, %8
  ret float %9
}