; Function Attrs: mustprogress nofree norecurse nosync nounwind willreturn memory(argmem: read) uwtable
define internal noundef float @_ZN2cv3dnn14dnn4_v20240521L11rectOverlapINS_5Rect_IdEEEEfRKT_S7_(ptr nocapture noundef nonnull readonly align 8 dereferenceable(32) %0, ptr nocapture noundef nonnull readonly align 8 dereferenceable(32) %1) #5 {
  %3 = getelementptr inbounds i8, ptr %0, i64 16
  %4 = getelementptr inbounds i8, ptr %1, i64 16
  %5 = load <2 x double>, ptr %3, align 8
  %6 = load <2 x double>, ptr %4, align 8
  %7 = shufflevector <2 x double> %5, <2 x double> %6, <2 x i32> <i32 0, i32 2>
  %8 = shufflevector <2 x double> %5, <2 x double> %6, <2 x i32> <i32 1, i32 3>
  %9 = fmul <2 x double> %7, %8
  %shift = shufflevector <2 x double> %9, <2 x double> poison, <2 x i32> <i32 1, i32 poison>
  %10 = fadd <2 x double> %9, %shift
  %11 = extractelement <2 x double> %10, i64 0
  %12 = fcmp ugt double %11, 0x3CB0000000000000
  br i1 %12, label %13, label %_ZN2cvL15jaccardDistanceIdEEdRKNS_5Rect_IT_EES5_.exit

13:                                               ; preds = %2
  %14 = load <2 x double>, ptr %0, align 8, !noalias !9
  %15 = extractelement <2 x double> %5, i64 0
  %16 = fcmp ole double %15, 0.000000e+00
  %17 = extractelement <2 x double> %5, i64 1
  %18 = fcmp ole double %17, 0.000000e+00
  %19 = or i1 %16, %18
  br i1 %19, label %.sink.split.i.i.i, label %20

20:                                               ; preds = %13
  %21 = extractelement <2 x double> %6, i64 0
  %22 = fcmp ole double %21, 0.000000e+00
  %23 = extractelement <2 x double> %6, i64 1
  %24 = fcmp ole double %23, 0.000000e+00
  %25 = or i1 %22, %24
  br i1 %25, label %.sink.split.i.i.i, label %26

26:                                               ; preds = %20
  %27 = load <2 x double>, ptr %1, align 8, !noalias !9
  %28 = fcmp olt <2 x double> %14, %27
  %29 = extractelement <2 x i1> %28, i64 0
  %30 = extractelement <2 x double> %14, i64 0
  %31 = extractelement <2 x double> %27, i64 0
  %32 = select i1 %29, double %30, double %31
  %33 = select i1 %29, double %31, double %30
  %34 = fcmp olt double %32, 0.000000e+00
  br i1 %34, label %35, label %38

35:                                               ; preds = %26
  %.sroa.speculated44.i.i = select i1 %29, double %15, double %21
  %36 = fadd double %32, %.sroa.speculated44.i.i
  %37 = fcmp olt double %36, %33
  br i1 %37, label %.sink.split.i.i.i, label %38

38:                                               ; preds = %35, %26
  %39 = extractelement <2 x i1> %28, i64 1
  %40 = extractelement <2 x double> %14, i64 1
  %41 = extractelement <2 x double> %27, i64 1
  %.sroa.speculated58.i.i = select i1 %39, double %40, double %41
  %42 = fcmp olt double %.sroa.speculated58.i.i, 0.000000e+00
  %.sroa.speculated36.i.i = select i1 %39, double %17, double %23
  br i1 %42, label %43, label %._crit_edge.i.i

._crit_edge.i.i:                                  ; preds = %38
  %.pre64.i.i = select i1 %39, double %41, double %40
  br label %46

43:                                               ; preds = %38
  %44 = fadd double %.sroa.speculated58.i.i, %.sroa.speculated36.i.i
  %.sroa.speculated49.i.i = select i1 %39, double %41, double %40
  %45 = fcmp olt double %44, %.sroa.speculated49.i.i
  br i1 %45, label %.sink.split.i.i.i, label %46

46:                                               ; preds = %43, %._crit_edge.i.i
  %.sroa.speculated52.pre-phi.i.i = phi double [ %.pre64.i.i, %._crit_edge.i.i ], [ %.sroa.speculated49.i.i, %43 ]
  %.sroa.speculated47.i.i = select i1 %29, double %15, double %21
  %47 = insertelement <2 x double> poison, double %33, i64 0
  %48 = insertelement <2 x double> %47, double %.sroa.speculated52.pre-phi.i.i, i64 1
  %49 = insertelement <2 x double> poison, double %32, i64 0
  %50 = insertelement <2 x double> %49, double %.sroa.speculated58.i.i, i64 1
  %51 = fsub <2 x double> %48, %50
  %52 = select <2 x i1> %28, <2 x double> %6, <2 x double> %5
  %53 = insertelement <2 x double> poison, double %.sroa.speculated47.i.i, i64 0
  %54 = insertelement <2 x double> %53, double %.sroa.speculated36.i.i, i64 1
  %55 = fsub <2 x double> %54, %51
  %56 = fcmp olt <2 x double> %52, %55
  %57 = select <2 x i1> %56, <2 x double> %52, <2 x double> %55
  %58 = extractelement <2 x double> %57, i64 0
  %59 = fcmp ole double %58, 0.000000e+00
  %60 = extractelement <2 x double> %57, i64 1
  %61 = fcmp ole double %60, 0.000000e+00
  %62 = select i1 %59, i1 true, i1 %61
  br i1 %62, label %.sink.split.i.i.i, label %_ZN2cvanIdEENS_5Rect_IT_EERKS3_S5_.exit.i

.sink.split.i.i.i:                                ; preds = %46, %43, %35, %20, %13
  br label %_ZN2cvanIdEENS_5Rect_IT_EERKS3_S5_.exit.i

_ZN2cvanIdEENS_5Rect_IT_EERKS3_S5_.exit.i:        ; preds = %.sink.split.i.i.i, %46
  %63 = phi <2 x double> [ zeroinitializer, %.sink.split.i.i.i ], [ %57, %46 ]
  %shift2 = shufflevector <2 x double> %63, <2 x double> poison, <2 x i32> <i32 1, i32 poison>
  %64 = fmul <2 x double> %63, %shift2
  %65 = extractelement <2 x double> %64, i64 0
  %66 = fsub <2 x double> %10, %64
  %67 = extractelement <2 x double> %66, i64 0
  %68 = fdiv double %65, %67
  %69 = fsub double 1.000000e+00, %68
  %70 = fptrunc double %69 to float
  br label %_ZN2cvL15jaccardDistanceIdEEdRKNS_5Rect_IT_EES5_.exit

_ZN2cvL15jaccardDistanceIdEEdRKNS_5Rect_IT_EES5_.exit: ; preds = %2, %_ZN2cvanIdEENS_5Rect_IT_EERKS3_S5_.exit.i
  %.0.i = phi float [ %70, %_ZN2cvanIdEENS_5Rect_IT_EERKS3_S5_.exit.i ], [ 0.000000e+00, %2 ]
  %71 = fsub float 1.000000e+00, %.0.i
  ret float %71
}